; Function Attrs: mustprogress uwtable
define internal void @_ZZN4absl13base_internal12_GLOBAL__N_140SpinLockWithThreads_DoesNotDeadlock_Test8TestBodyEvEN6Helper12LockThenWaitEPNS_12NotificationEPNS0_8SpinLockEPNS_15BlockingCounterE(ptr noundef %0, ptr noundef %1, ptr noundef %2) #4 align 2 personality ptr @__gxx_personality_v0 {
  %4 = alloca %"class.absl::base_internal::SpinLockHolder", align 8
  call void @llvm.lifetime.start.p0(i64 8, ptr nonnull %4) #20
  store ptr %1, ptr %4, align 8, !tbaa !144
  %5 = load atomic i32, ptr %1 monotonic, align 4
  %6 = and i32 %5, 1
  %.not.i.i.i.i = icmp eq i32 %6, 0
  br i1 %.not.i.i.i.i, label %_ZN4absl13base_internal8SpinLock11TryLockImplEv.exit.i.i, label %_ZN4absl13base_internal8SpinLock11TryLockImplEv.exit.thread.i.i

_ZN4absl13base_internal8SpinLock11TryLockImplEv.exit.i.i: ; preds = %3
  %7 = or disjoint i32 %5, 1
  %8 = cmpxchg ptr %1, i32 %5, i32 %7 acquire monotonic, align 4
  %9 = extractvalue { i32, i1 } %8, 0
  %.pre.i.i.i = and i32 %9, 1
  %10 = icmp eq i32 %.pre.i.i.i, 0
  br i1 %10, label %_ZN4absl13base_internal14SpinLockHolderC2EPNS0_8SpinLockE.exit, label %_ZN4absl13base_internal8SpinLock11TryLockImplEv.exit.thread.i.i

_ZN4absl13base_internal8SpinLock11TryLockImplEv.exit.thread.i.i: ; preds = %_ZN4absl13base_internal8SpinLock11TryLockImplEv.exit.i.i, %3
  tail call void @_ZN4absl13base_internal8SpinLock8SlowLockEv(ptr noundef nonnull align 4 dereferenceable(4) %1) #24
  br label %_ZN4absl13base_internal14SpinLockHolderC2EPNS0_8SpinLockE.exit

_ZN4absl13base_internal14SpinLockHolderC2EPNS0_8SpinLockE.exit: ; preds = %_ZN4absl13base_internal8SpinLock11TryLockImplEv.exit.i.i, %_ZN4absl13base_internal8SpinLock11TryLockImplEv.exit.thread.i.i
  invoke void @_ZN4absl12Notification6NotifyEv(ptr noundef nonnull align 8 dereferenceable(9) %0)
          to label %11 unwind label %21

11:                                               ; preds = %_ZN4absl13base_internal14SpinLockHolderC2EPNS0_8SpinLockE.exit
  invoke void @_ZN4absl15BlockingCounter4WaitEv(ptr noundef nonnull align 8 dereferenceable(17) %2)
          to label %12 unwind label %21

12:                                               ; preds = %11
  %13 = load ptr, ptr %4, align 8, !tbaa !144
  %14 = load atomic i32, ptr %13 monotonic, align 4
  %15 = and i32 %14, 2
  %16 = atomicrmw xchg ptr %13, i32 %15 release, align 4
  %.not4.i.i = icmp ult i32 %16, 8
  br i1 %.not4.i.i, label %_ZN4absl13base_internal14SpinLockHolderD2Ev.exit, label %17

17:                                               ; preds = %12
  invoke void @_ZN4absl13base_internal8SpinLock10SlowUnlockEj(ptr noundef nonnull align 4 dereferenceable(4) %13, i32 noundef %16) #24
          to label %_ZN4absl13base_internal14SpinLockHolderD2Ev.exit unwind label %18

18:                                               ; preds = %17
  %19 = landingpad { ptr, i32 }
          catch ptr null
  %20 = extractvalue { ptr, i32 } %19, 0
  tail call void @__clang_call_terminate(ptr %20) #21
  unreachable

_ZN4absl13base_internal14SpinLockHolderD2Ev.exit: ; preds = %12, %17
  call void @llvm.lifetime.end.p0(i64 8, ptr nonnull %4) #20
  ret void

21:                                               ; preds = %11, %_ZN4absl13base_internal14SpinLockHolderC2EPNS0_8SpinLockE.exit
  %22 = landingpad { ptr, i32 }
          cleanup
  call void @_ZN4absl13base_internal14SpinLockHolderD2Ev(ptr noundef nonnull align 8 dereferenceable(8) %4) #20
  call void @llvm.lifetime.end.p0(i64 8, ptr nonnull %4) #20
  resume { ptr, i32 } %22
}